target datalayout = "e-m:e-p270:32:32-p271:32:32-p272:64:64-i64:64-i128:128-f80:128-n8:16:32:64-S128"
target triple = "x86_64-pc-linux-gnu"

@rsock_intern_scm_optname_hash = internal global ptr null, align 8

; Function Attrs: nounwind sspstrong uwtable
define i64 @rsock_intern_scm_optname(i32 noundef %0) #0 {
  %2 = alloca i64, align 8
  %3 = alloca i32, align 4
  %4 = alloca i64, align 8
  %5 = alloca i32, align 4
  store i32 %0, ptr %3, align 4, !tbaa !15
  call void @llvm.lifetime.start.p0(i64 8, ptr %4) #11
  %6 = load ptr, ptr @rsock_intern_scm_optname_hash, align 8, !tbaa !17
  %7 = load i32, ptr %3, align 4, !tbaa !15
  %8 = sext i32 %7 to i64
  %9 = call i32 @rb_st_lookup(ptr noundef %6, i64 noundef %8, ptr noundef %4)
  %10 = icmp ne i32 %9, 0
  br i1 %10, label %11, label %13

11:                                               ; preds = %1
  %12 = load i64, ptr %4, align 8, !tbaa !11
  store i64 %12, ptr %2, align 8
  store i32 1, ptr %5, align 4
  br label %14

13:                                               ; preds = %1
  store i64 0, ptr %2, align 8
  store i32 1, ptr %5, align 4
  br label %14

14:                                               ; preds = %13, %11
  call void @llvm.lifetime.end.p0(i64 8, ptr %4) #11
  %15 = load i64, ptr %2, align 8
  ret i64 %15
}